target datalayout = "e-m:e-p270:32:32-p271:32:32-p272:64:64-i64:64-i128:128-f80:128-n8:16:32:64-S128"
target triple = "x86_64-pc-linux-gnu"

%struct.Curl_easy = type { i32, i64, i64, ptr, %struct.Curl_llist_node, %struct.Curl_llist_node, i32, i32, %struct.Curl_message, %struct.easy_pollset, %struct.Names, ptr, ptr, ptr, %struct.SingleRequest, %struct.UserDefined, ptr, ptr, %struct.Progress, %struct.UrlState, ptr, %struct.PureInfo, %struct.curl_tlssessioninfo }
%struct.Curl_llist_node = type { ptr, ptr, ptr, ptr }
%struct.Curl_message = type { %struct.Curl_llist_node, %struct.CURLMsg }
%struct.CURLMsg = type { i32, ptr, %union.anon }
%union.anon = type { ptr }
%struct.easy_pollset = type { [5 x i32], i32, [5 x i8] }
%struct.Names = type { ptr, i32 }
%struct.SingleRequest = type <{ i64, i64, i64, i64, %struct.curltime, i32, i32, i32, i32, i64, i32, i32, i32, i32, ptr, ptr, %struct.bufq, i64, i64, ptr, ptr, %union.anon.0, ptr, i8, i32, [3 x i8] }>
%struct.curltime = type { i64, i32 }
%struct.bufq = type { ptr, ptr, ptr, ptr, i64, i64, i64, i32 }
%union.anon.0 = type { ptr }
%struct.UserDefined = type <{ ptr, ptr, ptr, ptr, ptr, ptr, i16, [6 x i8], i64, i64, i64, ptr, ptr, i64, i16, i16, [4 x i8], ptr, ptr, ptr, ptr, ptr, ptr, ptr, ptr, ptr, ptr, ptr, ptr, ptr, ptr, ptr, ptr, ptr, ptr, ptr, ptr, ptr, ptr, ptr, i32, i32, i32, i32, i32, [4 x i8], i64, i64, i64, i64, i64, i64, i64, i64, ptr, ptr, %struct.curl_mimepart, ptr, ptr, i64, i8, i8, i8, [5 x i8], %struct.ssl_config_data, %struct.ssl_config_data, ptr, i16, i8, i8, [4 x i8], %struct.ssl_general_config, i32, i32, i32, [4 x i8], ptr, ptr, i8, [7 x i8], i64, i8, i8, i8, i8, i32, ptr, ptr, ptr, i8, i8, [2 x i8], i32, [63 x ptr], [8 x ptr], i32, i32, i32, [4 x i8], ptr, ptr, ptr, ptr, ptr, i8, [3 x i8], i32, i32, i32, i64, %struct.Curl_data_priority, ptr, ptr, i64, ptr, i64, ptr, ptr, ptr, i8, [3 x i8], i32, i8, i8, i64, [6 x i8] }>
%struct.curl_mimepart = type { ptr, ptr, i32, i32, ptr, ptr, ptr, ptr, ptr, ptr, ptr, ptr, ptr, ptr, ptr, i64, %struct.mime_state, ptr, %struct.mime_encoder_state, i64 }
%struct.mime_state = type { i32, ptr, i64 }
%struct.mime_encoder_state = type { i64, i64, i64, [256 x i8] }
%struct.ssl_config_data = type { %struct.ssl_primary_config, i64, ptr, ptr, ptr, ptr, ptr, ptr, ptr, i16 }
%struct.ssl_primary_config = type { ptr, ptr, ptr, ptr, ptr, ptr, ptr, ptr, ptr, ptr, ptr, ptr, i8, i32, i8, i8 }
%struct.ssl_general_config = type { i64, i32 }
%struct.Curl_data_priority = type { ptr, ptr, i32, i8 }
%struct.Progress = type { i64, %struct.pgrs_dir, %struct.pgrs_dir, i64, i64, i32, i32, i64, i64, i64, i64, i64, i64, i64, i64, i64, %struct.curltime, %struct.curltime, %struct.curltime, %struct.curltime, [6 x i64], [6 x %struct.curltime], i32, i8 }
%struct.pgrs_dir = type { i64, i64, i64, %struct.pgrs_measure }
%struct.pgrs_measure = type { %struct.curltime, i64 }
%struct.UrlState = type { %struct.curltime, i64, i64, %struct.dynbuf, ptr, i64, ptr, i32, i32, i32, ptr, i64, i32, i64, i32, ptr, %struct.digestdata, %struct.digestdata, %struct.auth, %struct.auth, %struct.Curl_async, ptr, %struct.curltime, %struct.Curl_tree, %struct.Curl_llist, [15 x %struct.time_node], ptr, ptr, i64, i64, %struct.Curl_data_priority, ptr, ptr, ptr, %struct.urlpieces, ptr, ptr, ptr, ptr, ptr, i64, %struct.dynbuf, %struct.Curl_llist, [2 x %struct.curl_header], ptr, i32, ptr, ptr, %struct.store_netrc, %struct.dynamically_allocated_data, i8, i8, i8, i8, i32 }
%struct.digestdata = type { ptr, ptr, ptr, ptr, ptr, ptr, i32, i8, i8 }
%struct.auth = type { i64, i64, i64, i8 }
%struct.Curl_async = type { ptr, ptr, ptr, ptr, i32, i32, i8 }
%struct.Curl_tree = type { ptr, ptr, ptr, ptr, %struct.curltime, ptr }
%struct.time_node = type { %struct.Curl_llist_node, %struct.curltime, i32 }
%struct.urlpieces = type { ptr, ptr, ptr, ptr, ptr, ptr, ptr, ptr }
%struct.dynbuf = type { ptr, i64, i64, i64 }
%struct.Curl_llist = type { ptr, ptr, ptr, i64 }
%struct.curl_header = type { ptr, ptr, i64, i64, i32, ptr }
%struct.store_netrc = type { %struct.dynbuf, ptr, i8 }
%struct.dynamically_allocated_data = type { ptr, ptr, ptr, ptr, ptr, ptr, ptr, ptr, ptr, ptr, ptr, ptr, ptr }
%struct.PureInfo = type { i32, i32, i32, i64, i64, i64, i64, i64, ptr, ptr, i64, i32, %struct.ip_quadruple, i32, ptr, i32, %struct.curl_certinfo, i32, i8 }
%struct.ip_quadruple = type { [46 x i8], [46 x i8], i32, i32 }
%struct.curl_certinfo = type { i32, ptr }
%struct.curl_tlssessioninfo = type { i32, ptr }
%struct.doh_probes = type { ptr, [2 x %struct.doh_probe], i32, i32, ptr }
%struct.doh_probe = type { i64, i32, [512 x i8], i64, %struct.dynbuf }
%struct.connectdata = type { %struct.Curl_llist_node, ptr, ptr, i64, ptr, i64, ptr, ptr, %struct.hostname, ptr, ptr, %struct.hostname, %struct.proxy_info, %struct.proxy_info, %struct.ip_quadruple, %struct.ip_quadruple, ptr, ptr, ptr, ptr, ptr, %struct.curltime, %struct.curltime, %struct.curltime, [2 x i32], [2 x ptr], [2 x ptr], [2 x ptr], %struct.anon, %struct.easy_pollset, %struct.ssl_primary_config, %struct.ssl_primary_config, %struct.ConnectBits, ptr, ptr, %struct.curltime, i32, i32, %struct.Curl_llist, i32, i32, %struct.ntlmdata, %struct.ntlmdata, %union.anon.1, ptr, i16, i32, i32, i32, i32, i16, i16, i8, i8, i8, i8, i8, i8, i8 }
%struct.hostname = type { ptr, ptr, ptr, ptr }
%struct.proxy_info = type { %struct.hostname, i32, i8, ptr, ptr }
%struct.anon = type { [2 x %struct.curltime], i32 }
%struct.ConnectBits = type { i64 }
%struct.ntlmdata = type { i32, [8 x i8], i32, ptr }
%union.anon.1 = type { %struct.ftp_conn }
%struct.ftp_conn = type { %struct.pingpong, ptr, ptr, ptr, ptr, ptr, ptr, ptr, i8, i64, ptr, i64, i32, i32, i32, i32, i32, i16, i8, i8, i8, i8, i8 }
%struct.pingpong = type { i64, i8, ptr, i64, i64, %struct.curltime, i64, %struct.dynbuf, %struct.dynbuf, i64, i64, ptr, ptr }

@Curl_ccalloc = external global ptr, align 8
@.str.1 = private unnamed_addr constant [38 x i8] c"Content-Type: application/dns-message\00", align 1

; Function Attrs: nounwind uwtable
define dso_local ptr @Curl_doh(ptr noundef %0, ptr noundef %1, i32 noundef %2, ptr noundef %3) #0 {
  %5 = alloca ptr, align 8
  %6 = alloca ptr, align 8
  %7 = alloca ptr, align 8
  %8 = alloca i32, align 4
  %9 = alloca ptr, align 8
  %10 = alloca i32, align 4
  %11 = alloca ptr, align 8
  %12 = alloca ptr, align 8
  %13 = alloca i64, align 8
  %14 = alloca i32, align 4
  store ptr %0, ptr %6, align 8, !tbaa !4
  store ptr %1, ptr %7, align 8, !tbaa !9
  store i32 %2, ptr %8, align 4, !tbaa !11
  store ptr %3, ptr %9, align 8, !tbaa !13
  call void @llvm.lifetime.start.p0(i64 4, ptr %10) #7
  store i32 0, ptr %10, align 4, !tbaa !11
  call void @llvm.lifetime.start.p0(i64 8, ptr %11) #7
  call void @llvm.lifetime.start.p0(i64 8, ptr %12) #7
  %15 = load ptr, ptr %6, align 8, !tbaa !4
  %16 = getelementptr inbounds nuw %struct.Curl_easy, ptr %15, i32 0, i32 3
  %17 = load ptr, ptr %16, align 8, !tbaa !15
  store ptr %17, ptr %12, align 8, !tbaa !82
  call void @llvm.lifetime.start.p0(i64 8, ptr %13) #7
  %18 = load ptr, ptr %9, align 8, !tbaa !13
  store i32 0, ptr %18, align 4, !tbaa !11
  br label %19

19:                                               ; preds = %4
  br label %20

20:                                               ; preds = %19
  br label %21

21:                                               ; preds = %20
  br label %22

22:                                               ; preds = %21
  br label %23

23:                                               ; preds = %22
  br label %24

24:                                               ; preds = %23
  %25 = load ptr, ptr @Curl_ccalloc, align 8, !tbaa !83
  %26 = call ptr %25(i64 noundef 1, i64 noundef 1160)
  %27 = load ptr, ptr %6, align 8, !tbaa !4
  %28 = getelementptr inbounds nuw %struct.Curl_easy, ptr %27, i32 0, i32 14
  %29 = getelementptr inbounds nuw %struct.SingleRequest, ptr %28, i32 0, i32 22
  store ptr %26, ptr %29, align 8, !tbaa !84
  store ptr %26, ptr %11, align 8, !tbaa !85
  %30 = load ptr, ptr %11, align 8, !tbaa !85
  %31 = icmp ne ptr %30, null
  br i1 %31, label %33, label %32

32:                                               ; preds = %24
  store ptr null, ptr %5, align 8
  store i32 1, ptr %14, align 4
  br label %130

33:                                               ; preds = %24
  store i64 0, ptr %13, align 8, !tbaa !86
  br label %34

34:                                               ; preds = %43, %33
  %35 = load i64, ptr %13, align 8, !tbaa !86
  %36 = icmp ult i64 %35, 2
  br i1 %36, label %37, label %46

37:                                               ; preds = %34
  %38 = load ptr, ptr %11, align 8, !tbaa !85
  %39 = getelementptr inbounds nuw %struct.doh_probes, ptr %38, i32 0, i32 1
  %40 = load i64, ptr %13, align 8, !tbaa !86
  %41 = getelementptr inbounds nuw [2 x %struct.doh_probe], ptr %39, i64 0, i64 %40
  %42 = getelementptr inbounds nuw %struct.doh_probe, ptr %41, i32 0, i32 0
  store i64 -1, ptr %42, align 8, !tbaa !87
  br label %43

43:                                               ; preds = %37
  %44 = load i64, ptr %13, align 8, !tbaa !86
  %45 = add i64 %44, 1
  store i64 %45, ptr %13, align 8, !tbaa !86
  br label %34, !llvm.loop !89

46:                                               ; preds = %34
  %47 = load ptr, ptr %12, align 8, !tbaa !82
  %48 = getelementptr inbounds nuw %struct.connectdata, ptr %47, i32 0, i32 32
  %49 = load i64, ptr %48, align 8
  %50 = and i64 %49, -33554433
  %51 = or i64 %50, 33554432
  store i64 %51, ptr %48, align 8
  %52 = load ptr, ptr %7, align 8, !tbaa !9
  %53 = load ptr, ptr %11, align 8, !tbaa !85
  %54 = getelementptr inbounds nuw %struct.doh_probes, ptr %53, i32 0, i32 4
  store ptr %52, ptr %54, align 8, !tbaa !91
  %55 = load i32, ptr %8, align 4, !tbaa !11
  %56 = load ptr, ptr %11, align 8, !tbaa !85
  %57 = getelementptr inbounds nuw %struct.doh_probes, ptr %56, i32 0, i32 3
  store i32 %55, ptr %57, align 4, !tbaa !93
  %58 = call ptr @curl_slist_append(ptr noundef null, ptr noundef @.str.1)
  %59 = load ptr, ptr %11, align 8, !tbaa !85
  %60 = getelementptr inbounds nuw %struct.doh_probes, ptr %59, i32 0, i32 0
  store ptr %58, ptr %60, align 8, !tbaa !94
  %61 = load ptr, ptr %11, align 8, !tbaa !85
  %62 = getelementptr inbounds nuw %struct.doh_probes, ptr %61, i32 0, i32 0
  %63 = load ptr, ptr %62, align 8, !tbaa !94
  %64 = icmp ne ptr %63, null
  br i1 %64, label %66, label %65

65:                                               ; preds = %46
  br label %128

66:                                               ; preds = %46
  %67 = load ptr, ptr %6, align 8, !tbaa !4
  %68 = load ptr, ptr %11, align 8, !tbaa !85
  %69 = getelementptr inbounds nuw %struct.doh_probes, ptr %68, i32 0, i32 1
  %70 = getelementptr inbounds [2 x %struct.doh_probe], ptr %69, i64 0, i64 0
  %71 = load ptr, ptr %7, align 8, !tbaa !9
  %72 = load ptr, ptr %6, align 8, !tbaa !4
  %73 = getelementptr inbounds nuw %struct.Curl_easy, ptr %72, i32 0, i32 15
  %74 = getelementptr inbounds nuw %struct.UserDefined, ptr %73, i32 0, i32 93
  %75 = getelementptr inbounds [63 x ptr], ptr %74, i64 0, i64 53
  %76 = load ptr, ptr %75, align 8, !tbaa !9
  %77 = load ptr, ptr %6, align 8, !tbaa !4
  %78 = getelementptr inbounds nuw %struct.Curl_easy, ptr %77, i32 0, i32 11
  %79 = load ptr, ptr %78, align 8, !tbaa !95
  %80 = load ptr, ptr %11, align 8, !tbaa !85
  %81 = getelementptr inbounds nuw %struct.doh_probes, ptr %80, i32 0, i32 0
  %82 = load ptr, ptr %81, align 8, !tbaa !94
  %83 = call i32 @doh_run_probe(ptr noundef %67, ptr noundef %70, i32 noundef 1, ptr noundef %71, ptr noundef %76, ptr noundef %79, ptr noundef %82)
  store i32 %83, ptr %10, align 4, !tbaa !11
  %84 = load i32, ptr %10, align 4, !tbaa !11
  %85 = icmp ne i32 %84, 0
  br i1 %85, label %86, label %87

86:                                               ; preds = %66
  br label %128

87:                                               ; preds = %66
  %88 = load ptr, ptr %11, align 8, !tbaa !85
  %89 = getelementptr inbounds nuw %struct.doh_probes, ptr %88, i32 0, i32 2
  %90 = load i32, ptr %89, align 8, !tbaa !96
  %91 = add i32 %90, 1
  store i32 %91, ptr %89, align 8, !tbaa !96
  %92 = load ptr, ptr %12, align 8, !tbaa !82
  %93 = getelementptr inbounds nuw %struct.connectdata, ptr %92, i32 0, i32 55
  %94 = load i8, ptr %93, align 1, !tbaa !97
  %95 = zext i8 %94 to i32
  %96 = icmp ne i32 %95, 1
  br i1 %96, label %97, label %126

97:                                               ; preds = %87
  %98 = load ptr, ptr %6, align 8, !tbaa !4
  %99 = call zeroext i1 @Curl_ipv6works(ptr noundef %98)
  br i1 %99, label %100, label %126

100:                                              ; preds = %97
  %101 = load ptr, ptr %6, align 8, !tbaa !4
  %102 = load ptr, ptr %11, align 8, !tbaa !85
  %103 = getelementptr inbounds nuw %struct.doh_probes, ptr %102, i32 0, i32 1
  %104 = getelementptr inbounds [2 x %struct.doh_probe], ptr %103, i64 0, i64 1
  %105 = load ptr, ptr %7, align 8, !tbaa !9
  %106 = load ptr, ptr %6, align 8, !tbaa !4
  %107 = getelementptr inbounds nuw %struct.Curl_easy, ptr %106, i32 0, i32 15
  %108 = getelementptr inbounds nuw %struct.UserDefined, ptr %107, i32 0, i32 93
  %109 = getelementptr inbounds [63 x ptr], ptr %108, i64 0, i64 53
  %110 = load ptr, ptr %109, align 8, !tbaa !9
  %111 = load ptr, ptr %6, align 8, !tbaa !4
  %112 = getelementptr inbounds nuw %struct.Curl_easy, ptr %111, i32 0, i32 11
  %113 = load ptr, ptr %112, align 8, !tbaa !95
  %114 = load ptr, ptr %11, align 8, !tbaa !85
  %115 = getelementptr inbounds nuw %struct.doh_probes, ptr %114, i32 0, i32 0
  %116 = load ptr, ptr %115, align 8, !tbaa !94
  %117 = call i32 @doh_run_probe(ptr noundef %101, ptr noundef %104, i32 noundef 28, ptr noundef %105, ptr noundef %110, ptr noundef %113, ptr noundef %116)
  store i32 %117, ptr %10, align 4, !tbaa !11
  %118 = load i32, ptr %10, align 4, !tbaa !11
  %119 = icmp ne i32 %118, 0
  br i1 %119, label %120, label %121

120:                                              ; preds = %100
  br label %128

121:                                              ; preds = %100
  %122 = load ptr, ptr %11, align 8, !tbaa !85
  %123 = getelementptr inbounds nuw %struct.doh_probes, ptr %122, i32 0, i32 2
  %124 = load i32, ptr %123, align 8, !tbaa !96
  %125 = add i32 %124, 1
  store i32 %125, ptr %123, align 8, !tbaa !96
  br label %126

126:                                              ; preds = %121, %97, %87
  %127 = load ptr, ptr %9, align 8, !tbaa !13
  store i32 1, ptr %127, align 4, !tbaa !11
  store ptr null, ptr %5, align 8
  store i32 1, ptr %14, align 4
  br label %130

128:                                              ; preds = %120, %86, %65
  %129 = load ptr, ptr %6, align 8, !tbaa !4
  call void @Curl_doh_cleanup(ptr noundef %129)
  store ptr null, ptr %5, align 8
  store i32 1, ptr %14, align 4
  br label %130

130:                                              ; preds = %128, %126, %32
  call void @llvm.lifetime.end.p0(i64 8, ptr %13) #7
  call void @llvm.lifetime.end.p0(i64 8, ptr %12) #7
  call void @llvm.lifetime.end.p0(i64 8, ptr %11) #7
  call void @llvm.lifetime.end.p0(i64 4, ptr %10) #7
  %131 = load ptr, ptr %5, align 8
  ret ptr %131
}