; Function Attrs: nounwind uwtable
define dso_local noundef ptr @Curl_doh(ptr noundef initializes((440, 448)) %0, ptr noundef %1, i32 noundef %2, ptr noundef writeonly captures(none) initializes((0, 4)) %3) local_unnamed_addr #0 {
  %5 = getelementptr inbounds nuw i8, ptr %0, i64 24
  %6 = load ptr, ptr %5, align 8, !tbaa !4
  store i32 0, ptr %3, align 4, !tbaa !77
  %7 = load ptr, ptr @Curl_ccalloc, align 8, !tbaa !78
  %8 = tail call ptr %7(i64 noundef 1, i64 noundef 1160) #8
  %9 = getelementptr inbounds nuw i8, ptr %0, i64 440
  store ptr %8, ptr %9, align 8, !tbaa !79
  %.not = icmp eq ptr %8, null
  br i1 %.not, label %43, label %.preheader

.preheader:                                       ; preds = %4
  %10 = getelementptr inbounds nuw i8, ptr %8, i64 8
  store i64 -1, ptr %10, align 8, !tbaa !80
  %11 = getelementptr inbounds nuw i8, ptr %8, i64 576
  store i64 -1, ptr %11, align 8, !tbaa !80
  %12 = getelementptr inbounds nuw i8, ptr %6, i64 920
  %13 = load i64, ptr %12, align 8
  %14 = or i64 %13, 33554432
  store i64 %14, ptr %12, align 8
  %15 = getelementptr inbounds nuw i8, ptr %8, i64 1152
  store ptr %1, ptr %15, align 8, !tbaa !82
  %16 = getelementptr inbounds nuw i8, ptr %8, i64 1148
  store i32 %2, ptr %16, align 4, !tbaa !84
  %17 = tail call ptr @curl_slist_append(ptr noundef null, ptr noundef nonnull @.str.1) #8
  store ptr %17, ptr %8, align 8, !tbaa !85
  %.not38 = icmp eq ptr %17, null
  br i1 %.not38, label %42, label %18

18:                                               ; preds = %.preheader
  %19 = getelementptr inbounds nuw i8, ptr %0, i64 2240
  %20 = load ptr, ptr %19, align 8, !tbaa !86
  %21 = getelementptr inbounds nuw i8, ptr %0, i64 208
  %22 = load ptr, ptr %21, align 8, !tbaa !87
  %23 = tail call fastcc i32 @doh_run_probe(ptr noundef %0, ptr noundef %10, i32 noundef 1, ptr noundef %1, ptr noundef %20, ptr noundef %22, ptr noundef nonnull %17)
  %.not39 = icmp eq i32 %23, 0
  br i1 %.not39, label %24, label %42

24:                                               ; preds = %18
  %25 = getelementptr inbounds nuw i8, ptr %8, i64 1144
  %26 = load i32, ptr %25, align 8, !tbaa !88
  %27 = add i32 %26, 1
  store i32 %27, ptr %25, align 8, !tbaa !88
  %28 = getelementptr inbounds nuw i8, ptr %6, i64 1371
  %29 = load i8, ptr %28, align 1, !tbaa !89
  %.not40 = icmp eq i8 %29, 1
  br i1 %.not40, label %41, label %30

30:                                               ; preds = %24
  %31 = tail call zeroext i1 @Curl_ipv6works(ptr noundef nonnull %0) #8
  br i1 %31, label %32, label %41

32:                                               ; preds = %30
  %33 = getelementptr inbounds nuw i8, ptr %8, i64 576
  %34 = load ptr, ptr %19, align 8, !tbaa !86
  %35 = load ptr, ptr %21, align 8, !tbaa !87
  %36 = load ptr, ptr %8, align 8, !tbaa !85
  %37 = tail call fastcc i32 @doh_run_probe(ptr noundef nonnull %0, ptr noundef %33, i32 noundef 28, ptr noundef %1, ptr noundef %34, ptr noundef %35, ptr noundef %36)
  %.not41 = icmp eq i32 %37, 0
  br i1 %.not41, label %38, label %42

38:                                               ; preds = %32
  %39 = load i32, ptr %25, align 8, !tbaa !88
  %40 = add i32 %39, 1
  store i32 %40, ptr %25, align 8, !tbaa !88
  br label %41

41:                                               ; preds = %38, %30, %24
  store i32 1, ptr %3, align 4, !tbaa !77
  br label %43

42:                                               ; preds = %32, %18, %.preheader
  tail call void @Curl_doh_cleanup(ptr noundef %0)
  br label %43

43:                                               ; preds = %4, %42, %41
  ret ptr null
}